target datalayout = "e-m:e-p270:32:32-p271:32:32-p272:64:64-i64:64-i128:128-f80:128-n8:16:32:64-S128"
target triple = "x86_64-pc-linux-gnu"

%"class.icu_77::BytesTrie" = type <{ ptr, ptr, ptr, i32, [4 x i8] }>

; Function Attrs: inlinehint mustprogress uwtable
define linkonce_odr noundef i32 @_ZNK6icu_779BytesTrie8getValueEv(ptr noundef nonnull align 8 dereferenceable(28) %0) #3 comdat align 2 {
  %2 = alloca ptr, align 8
  %3 = alloca ptr, align 8
  %4 = alloca i32, align 4
  store ptr %0, ptr %2, align 8, !tbaa !108
  %5 = load ptr, ptr %2, align 8
  call void @llvm.lifetime.start.p0(i64 8, ptr %3) #13
  %6 = getelementptr inbounds nuw %"class.icu_77::BytesTrie", ptr %5, i32 0, i32 2
  %7 = load ptr, ptr %6, align 8, !tbaa !112
  store ptr %7, ptr %3, align 8, !tbaa !17
  call void @llvm.lifetime.start.p0(i64 4, ptr %4) #13
  %8 = load ptr, ptr %3, align 8, !tbaa !17
  %9 = getelementptr inbounds nuw i8, ptr %8, i32 1
  store ptr %9, ptr %3, align 8, !tbaa !17
  %10 = load i8, ptr %8, align 1, !tbaa !114
  %11 = zext i8 %10 to i32
  store i32 %11, ptr %4, align 4, !tbaa !14
  %12 = load ptr, ptr %3, align 8, !tbaa !17
  %13 = load i32, ptr %4, align 4, !tbaa !14
  %14 = ashr i32 %13, 1
  %15 = call noundef i32 @_ZN6icu_779BytesTrie9readValueEPKhi(ptr noundef %12, i32 noundef %14)
  call void @llvm.lifetime.end.p0(i64 4, ptr %4) #13
  call void @llvm.lifetime.end.p0(i64 8, ptr %3) #13
  ret i32 %15
}

; Function Attrs: mustprogress uwtable
define noundef i32 @_ZN6icu_7713LikelySubtags8trieNextERNS_9BytesTrieEPKci(ptr noundef nonnull align 8 dereferenceable(28) %0, ptr noundef %1, i32 noundef %2) #1 align 2 {
  %4 = alloca i32, align 4
  %5 = alloca ptr, align 8
  %6 = alloca ptr, align 8
  %7 = alloca i32, align 4
  %8 = alloca i32, align 4
  %9 = alloca i8, align 1
  %10 = alloca i8, align 1
  %11 = alloca i32, align 4
  store ptr %0, ptr %5, align 8, !tbaa !108
  store ptr %1, ptr %6, align 8, !tbaa !17
  store i32 %2, ptr %7, align 4, !tbaa !14
  call void @llvm.lifetime.start.p0(i64 4, ptr %8) #13
  call void @llvm.lifetime.start.p0(i64 1, ptr %9) #13
  %12 = load ptr, ptr %6, align 8, !tbaa !17
  %13 = load i32, ptr %7, align 4, !tbaa !14
  %14 = sext i32 %13 to i64
  %15 = getelementptr inbounds i8, ptr %12, i64 %14
  %16 = load i8, ptr %15, align 1, !tbaa !114
  store i8 %16, ptr %9, align 1, !tbaa !114
  %17 = zext i8 %16 to i32
  %18 = icmp eq i32 %17, 0
  br i1 %18, label %19, label %22

19:                                               ; preds = %3
  %20 = load ptr, ptr %5, align 8, !tbaa !108
  %21 = call noundef i32 @_ZN6icu_779BytesTrie4nextEi(ptr noundef nonnull align 8 dereferenceable(28) %20, i32 noundef 42)
  store i32 %21, ptr %8, align 4, !tbaa !93
  br label %55

22:                                               ; preds = %3
  br label %23

23:                                               ; preds = %53, %22
  %24 = load i8, ptr %9, align 1, !tbaa !114
  store i8 %24, ptr %9, align 1, !tbaa !114
  call void @llvm.lifetime.start.p0(i64 1, ptr %10) #13
  %25 = load ptr, ptr %6, align 8, !tbaa !17
  %26 = load i32, ptr %7, align 4, !tbaa !14
  %27 = add nsw i32 %26, 1
  store i32 %27, ptr %7, align 4, !tbaa !14
  %28 = sext i32 %27 to i64
  %29 = getelementptr inbounds i8, ptr %25, i64 %28
  %30 = load i8, ptr %29, align 1, !tbaa !114
  store i8 %30, ptr %10, align 1, !tbaa !114
  %31 = load i8, ptr %10, align 1, !tbaa !114
  %32 = zext i8 %31 to i32
  %33 = icmp ne i32 %32, 0
  br i1 %33, label %34, label %43

34:                                               ; preds = %23
  %35 = load ptr, ptr %5, align 8, !tbaa !108
  %36 = load i8, ptr %9, align 1, !tbaa !114
  %37 = zext i8 %36 to i32
  %38 = call noundef i32 @_ZN6icu_779BytesTrie4nextEi(ptr noundef nonnull align 8 dereferenceable(28) %35, i32 noundef %37)
  %39 = and i32 %38, 1
  %40 = icmp ne i32 %39, 0
  br i1 %40, label %42, label %41

41:                                               ; preds = %34
  store i32 -1, ptr %4, align 4
  store i32 1, ptr %11, align 4
  br label %51

42:                                               ; preds = %34
  br label %49

43:                                               ; preds = %23
  %44 = load ptr, ptr %5, align 8, !tbaa !108
  %45 = load i8, ptr %9, align 1, !tbaa !114
  %46 = zext i8 %45 to i32
  %47 = or i32 %46, 128
  %48 = call noundef i32 @_ZN6icu_779BytesTrie4nextEi(ptr noundef nonnull align 8 dereferenceable(28) %44, i32 noundef %47)
  store i32 %48, ptr %8, align 4, !tbaa !93
  store i32 2, ptr %11, align 4
  br label %51

49:                                               ; preds = %42
  %50 = load i8, ptr %10, align 1, !tbaa !114
  store i8 %50, ptr %9, align 1, !tbaa !114
  store i32 0, ptr %11, align 4
  br label %51

51:                                               ; preds = %49, %43, %41
  call void @llvm.lifetime.end.p0(i64 1, ptr %10) #13
  %52 = load i32, ptr %11, align 4
  switch i32 %52, label %64 [
    i32 0, label %53
    i32 2, label %54
  ]

53:                                               ; preds = %51
  br label %23, !llvm.loop !138

54:                                               ; preds = %51
  br label %55

55:                                               ; preds = %54, %19
  %56 = load i32, ptr %8, align 4, !tbaa !93
  switch i32 %56, label %63 [
    i32 0, label %57
    i32 1, label %58
    i32 3, label %59
    i32 2, label %60
  ]

57:                                               ; preds = %55
  store i32 -1, ptr %4, align 4
  store i32 1, ptr %11, align 4
  br label %64

58:                                               ; preds = %55
  store i32 0, ptr %4, align 4
  store i32 1, ptr %11, align 4
  br label %64

59:                                               ; preds = %55
  store i32 1, ptr %4, align 4
  store i32 1, ptr %11, align 4
  br label %64

60:                                               ; preds = %55
  %61 = load ptr, ptr %5, align 8, !tbaa !108
  %62 = call noundef i32 @_ZNK6icu_779BytesTrie8getValueEv(ptr noundef nonnull align 8 dereferenceable(28) %61)
  store i32 %62, ptr %4, align 4
  store i32 1, ptr %11, align 4
  br label %64

63:                                               ; preds = %55
  store i32 -1, ptr %4, align 4
  store i32 1, ptr %11, align 4
  br label %64

64:                                               ; preds = %63, %60, %59, %58, %57, %51
  call void @llvm.lifetime.end.p0(i64 1, ptr %9) #13
  call void @llvm.lifetime.end.p0(i64 4, ptr %8) #13
  %65 = load i32, ptr %4, align 4
  ret i32 %65
}