; Function Attrs: mustprogress uwtable
define noundef i32 @_ZN6icu_7713LikelySubtags8trieNextERNS_9BytesTrieEPKci(ptr noundef nonnull align 8 dereferenceable(28) %0, ptr noundef readonly captures(none) %1, i32 noundef %2) local_unnamed_addr #1 align 2 {
  %4 = sext i32 %2 to i64
  %5 = getelementptr inbounds i8, ptr %1, i64 %4
  %6 = load i8, ptr %5, align 1, !tbaa !36
  %7 = icmp eq i8 %6, 0
  br i1 %7, label %16, label %.preheader

.preheader:                                       ; preds = %3, %10
  %indvars.iv = phi i64 [ %indvars.iv.next, %10 ], [ %4, %3 ]
  %.016 = phi i8 [ %9, %10 ], [ %6, %3 ]
  %indvars.iv.next = add nsw i64 %indvars.iv, 1
  %8 = getelementptr inbounds i8, ptr %1, i64 %indvars.iv.next
  %9 = load i8, ptr %8, align 1, !tbaa !36
  %.not = icmp eq i8 %9, 0
  br i1 %.not, label %.thread26, label %10

10:                                               ; preds = %.preheader
  %11 = zext i8 %.016 to i32
  %12 = tail call noundef i32 @_ZN6icu_779BytesTrie4nextEi(ptr noundef nonnull align 8 dereferenceable(28) %0, i32 noundef %11)
  %13 = and i32 %12, 1
  %.not22 = icmp eq i32 %13, 0
  br i1 %.not22, label %.thread, label %.preheader

.thread26:                                        ; preds = %.preheader
  %14 = or i8 %.016, -128
  %15 = zext i8 %14 to i32
  br label %16

16:                                               ; preds = %3, %.thread26
  %.sink = phi i32 [ %15, %.thread26 ], [ 42, %3 ]
  %17 = tail call noundef i32 @_ZN6icu_779BytesTrie4nextEi(ptr noundef nonnull align 8 dereferenceable(28) %0, i32 noundef %.sink)
  switch i32 %17, label %27 [
    i32 2, label %19
    i32 1, label %.thread
    i32 3, label %18
  ]

18:                                               ; preds = %16
  br label %.thread

19:                                               ; preds = %16
  %20 = getelementptr inbounds nuw i8, ptr %0, i64 16
  %21 = load ptr, ptr %20, align 8, !tbaa !115
  %22 = getelementptr inbounds nuw i8, ptr %21, i64 1
  %23 = load i8, ptr %21, align 1, !tbaa !36
  %24 = lshr i8 %23, 1
  %25 = zext nneg i8 %24 to i32
  %26 = tail call noundef i32 @_ZN6icu_779BytesTrie9readValueEPKhi(ptr noundef nonnull %22, i32 noundef %25)
  br label %.thread

27:                                               ; preds = %16
  br label %.thread

.thread:                                          ; preds = %10, %16, %27, %19, %18
  %.2 = phi i32 [ -1, %27 ], [ %26, %19 ], [ 1, %18 ], [ 0, %16 ], [ -1, %10 ]
  ret i32 %.2
}